; Function Attrs: nounwind sspstrong uwtable
define dso_local i64 @rb_obj_id(i64 noundef %0) #0 {
  %2 = icmp eq i64 %0, 0
  %3 = and i64 %0, 7
  %4 = icmp ne i64 %3, 0
  %5 = or i1 %2, %4
  br i1 %5, label %6, label %13

6:                                                ; preds = %1
  %7 = add i64 %0, 4611686018427387904
  %or.cond.i.i = icmp sgt i64 %7, -1
  br i1 %or.cond.i.i, label %8, label %11

8:                                                ; preds = %6
  %9 = shl nsw i64 %0, 1
  %10 = or disjoint i64 %9, 1
  br label %rb_find_object_id.exit

11:                                               ; preds = %6
  %12 = tail call i64 @rb_int2big(i64 noundef %0) #7
  br label %rb_find_object_id.exit

13:                                               ; preds = %1
  %14 = load ptr, ptr @ruby_current_vm_ptr, align 8, !tbaa !62
  %15 = getelementptr inbounds nuw i8, ptr %14, i64 1296
  %16 = load ptr, ptr %15, align 8, !tbaa !63
  %17 = tail call fastcc i64 @rb_gc_impl_object_id(ptr noundef %16, i64 noundef %0) #7, !callees !264
  br label %rb_find_object_id.exit

rb_find_object_id.exit:                           ; preds = %8, %11, %13
  %.0.i = phi i64 [ %17, %13 ], [ %10, %8 ], [ %12, %11 ]
  ret i64 %.0.i
}